Certificate:
    Data:
        Version: 3 (0x2)
        Serial Number:
            05:6d:55:98:6c:10:5c:de:5b:63:dd:3f:81:6c:db:f5
    Signature Algorithm: sha256WithRSAEncryption
        Issuer: CN=Couchbase Example CA
        Validity
            Not Before: Feb  1 10:21:06 2018 GMT
            Not After : Jan 30 10:21:06 2028 GMT
        Subject: CN=couchbase-server
        Subject Public Key Info:
            Public Key Algorithm: rsaEncryption
                Public-Key: (2048 bit)
                Modulus:
                    00:df:bf:11:a6:09:19:ba:e2:80:5b:79:79:1b:0d:
                    37:4d:50:5a:d8:fd:b7:5c:d5:71:19:71:9b:ed:61:
                    63:4d:51:b9:08:f2:7f:c4:3b:f1:24:73:9f:fa:0e:
                    91:b8:58:5c:a4:44:50:e0:5d:83:99:17:72:1c:e8:
                    1d:59:d2:78:a2:ba:7d:ef:c8:7e:10:0c:7f:59:c7:
                    1a:5c:94:57:b2:d9:81:3a:34:d9:e7:6b:a8:ae:03:
                    cc:67:5d:6b:d8:72:ae:3e:78:79:cd:02:ba:ce:80:
                    66:ae:35:24:a9:76:74:82:34:40:9c:4a:9d:66:c3:
                    c2:47:36:f7:1f:40:be:c8:ff:2a:ac:18:c4:cc:8a:
                    0e:82:15:3f:89:5a:89:eb:df:ea:08:ce:46:75:be:
                    97:78:e6:0a:f2:b5:5b:72:76:d1:4d:5e:c0:2a:89:
                    f2:53:ff:68:43:81:d4:fe:01:83:b9:b9:18:16:bc:
                    32:8c:65:1d:c2:b9:4d:3c:06:bb:72:44:6f:5e:2a:
                    3a:2e:21:6e:10:e9:3a:b0:f8:82:9b:cc:dd:51:4f:
                    79:7d:92:11:8a:2a:ae:e5:4a:59:eb:00:54:ab:51:
                    a3:e5:e5:d6:17:c3:f6:03:3d:1b:f5:27:cd:d1:71:
                    5c:ed:76:64:40:ed:71:9e:76:ce:15:ea:30:91:56:
                    35:a5
                Exponent: 65537 (0x10001)
        X509v3 extensions:
            X509v3 Basic Constraints: 
                CA:FALSE
            X509v3 Subject Key Identifier: 
                13:11:6C:4E:C4:9E:1E:D6:D9:15:CF:7E:24:E2:DD:E4:15:99:10:39
            X509v3 Authority Key Identifier: 
                keyid:B5:B6:13:54:C2:A6:3D:B9:7E:7E:E6:AE:2E:E3:1F:5D:D0:78:2D:E6
                DirName:/CN=Couchbase Example CA
                serial:C6:D7:FE:03:84:55:98:47

            X509v3 Extended Key Usage: 
                TLS Web Server Authentication
            X509v3 Key Usage: 
                Digital Signature, Key Encipherment
            X509v3 Subject Alternative Name: 
                DNS:*.cb-example.default.svc
    Signature Algorithm: sha256WithRSAEncryption
         52:d7:99:06:66:d2:8b:f8:e5:94:99:1e:64:66:0d:f5:dc:c7:
         32:e3:6f:2a:af:92:68:4f:74:89:95:a6:6e:0e:17:b4:af:7a:
         ce:5c:4f:17:8f:d6:11:30:06:44:fa:67:79:ef:6d:81:4b:7b:
         9c:cf:7e:5c:3f:76:62:e3:99:00:8e:bf:ed:bb:5b:43:f1:1c:
         fa:5f:3c:1d:08:e6:93:07:52:51:02:35:35:d8:57:ea:06:5b:
         0f:a1:54:3b:b5:88:ca:74:ea:31:07:dc:94:e0:55:20:13:8b:
         fc:e2:86:51:c1:9e:26:82:f1:57:c5:b4:ae:66:d4:df:d7:c3:
         bd:e2:9c:e5:07:2c:ba:0b:88:e7:8e:fb:fd:da:c7:ef:c7:64:
         73:6c:2b:6d:2a:a3:ef:8b:0f:3e:83:21:7c:11:12:cf:c1:75:
         11:a0:95:9c:13:e0:89:bf:3f:f0:a3:54:c8:1e:da:95:e3:8a:
         bd:70:ab:3e:aa:31:58:78:fd:fa:79:4a:ac:53:32:91:ad:c7:
         89:c1:1d:e1:f0:28:fe:ce:48:a3:18:b4:40:41:56:a2:2c:0f:
         e5:f8:a1:8c:ab:0a:85:50:a4:2c:60:bb:a9:a3:8b:01:79:df:
         48:db:07:70:76:a6:65:1e:9b:3c:ad:72:d5:33:47:21:74:be:
         2b:20:66:00
-----BEGIN CERTIFICATE-----
MIIDijCCAnKgAwIBAgIQBW1VmGwQXN5bY90/gWzb9TANBgkqhkiG9w0BAQsFADAf
MR0wGwYDVQQDDBRDb3VjaGJhc2UgRXhhbXBsZSBDQTAeFw0xODAyMDExMDIxMDZa
Fw0yODAxMzAxMDIxMDZaMBsxGTAXBgNVBAMMEGNvdWNoYmFzZS1zZXJ2ZXIwggEi
MA0GCSqGSIb3DQEBAQUAA4IBDwAwggEKAoIBAQDfvxGmCRm64oBbeXkbDTdNUFrY
/bdc1XEZcZvtYWNNUbkI8n/EO/Ekc5/6DpG4WFykRFDgXYOZF3Ic6B1Z0niiun3v
yH4QDH9ZxxpclFey2YE6NNnna6iuA8xnXWvYcq4+eHnNArrOgGauNSSpdnSCNECc
Sp1mw8JHNvcfQL7I/yqsGMTMig6CFT+JWonr3+oIzkZ1vpd45grytVtydtFNXsAq
ifJT/2hDgdT+AYO5uRgWvDKMZR3CuU08BrtyRG9eKjouIW4Q6Tqw+IKbzN1RT3l9
khGKKq7lSlnrAFSrUaPl5dYXw/YDPRv1J83RcVztdmRA7XGeds4V6jCRVjWlAgMB
AAGjgcUwgcIwCQYDVR0TBAIwADAdBgNVHQ4EFgQUExFsTsSeHtbZFc9+JOLd5BWZ
EDkwTwYDVR0jBEgwRoAUtbYTVMKmPbl+fuauLuMfXdB4LeahI6QhMB8xHTAbBgNV
BAMMFENvdWNoYmFzZSBFeGFtcGxlIENBggkAxtf+A4RVmEcwEwYDVR0lBAwwCgYI
KwYBBQUHAwEwCwYDVR0PBAQDAgWgMCMGA1UdEQQcMBqCGCouY2ItZXhhbXBsZS5k
ZWZhdWx0LnN2YzANBgkqhkiG9w0BAQsFAAOCAQEAUteZBmbSi/jllJkeZGYN9dzH
MuNvKq+SaE90iZWmbg4XtK96zlxPF4/WETAGRPpnee9tgUt7nM9+XD92YuOZAI6/
7btbQ/Ec+l88HQjmkwdSUQI1NdhX6gZbD6FUO7WIynTqMQfclOBVIBOL/OKGUcGe
JoLxV8W0rmbU39fDveKc5QcsuguI5477/drH78dkc2wrbSqj74sPPoMhfBESz8F1
EaCVnBPgib8/8KNUyB7aleOKvXCrPqoxWHj9+nlKrFMyka3HicEd4fAo/s5Ioxi0
QEFWoiwP5fihjKsKhVCkLGC7qaOLAXnfSNsHcHamZR6bPK1y1TNHIXS+KyBmAA==
-----END CERTIFICATE-----
