Certificate:
    Data:
        Version: 3 (0x2)
        Serial Number:
            06:28:31:53:a2:e5:02:c1:b3:06:66:6b:3e:7d:c5:00
        Signature Algorithm: sha256WithRSAEncryption
        Issuer: CN=Easy-RSA CA
        Validity
            Not Before: Dec 10 15:27:32 2019 GMT
            Not After : Mar 14 15:27:32 2022 GMT
        Subject: CN=couchbase-server
        Subject Public Key Info:
            Public Key Algorithm: rsaEncryption
                RSA Public-Key: (2048 bit)
                Modulus:
                    00:bd:95:6a:f6:db:ff:53:60:a4:95:3d:23:79:1a:
                    32:7f:69:ad:f7:27:d4:73:d9:74:8a:75:3d:11:54:
                    8b:19:59:19:09:de:12:d1:de:e4:fc:1e:3f:ac:1a:
                    f7:53:41:d0:4d:15:af:8b:85:2e:9c:c0:97:23:53:
                    ef:c0:0f:c3:90:20:62:41:bb:b5:96:a1:94:19:72:
                    82:ed:14:c0:c8:19:02:bd:6b:1a:7d:81:df:5f:ec:
                    7b:8e:15:9d:6a:fd:c9:6a:d6:8c:f2:c2:80:8e:2f:
                    da:e4:c8:2f:09:32:3a:52:b2:d7:75:b7:42:b7:25:
                    47:3b:2e:68:ee:6f:00:9d:ed:2f:1f:e7:f4:60:4f:
                    56:c0:c2:8a:19:4c:85:34:4d:52:e9:b7:d0:14:c4:
                    9b:c8:94:99:65:1d:c0:d9:8f:f5:77:d7:f2:7b:37:
                    9b:37:58:52:47:06:63:36:59:ef:85:04:14:8c:1d:
                    37:9d:e7:48:f7:5f:15:65:e1:f4:72:ee:6c:7a:59:
                    9f:a4:08:12:ea:75:1f:7c:28:a3:00:da:bc:e2:25:
                    53:12:60:65:ea:47:5b:77:8b:c2:a2:c0:5a:53:c2:
                    13:df:29:77:5c:67:97:58:b1:5e:9e:d3:3f:72:34:
                    0f:95:a1:1d:84:e2:9e:08:02:cc:80:5a:3d:b5:5f:
                    eb:33
                Exponent: 65537 (0x10001)
        X509v3 extensions:
            X509v3 Basic Constraints: 
                CA:FALSE
            X509v3 Subject Key Identifier: 
                C2:9A:C8:B1:2F:8A:01:3D:2D:85:21:B6:AC:B1:9F:B5:E9:E0:23:3A
            X509v3 Authority Key Identifier: 
                keyid:19:A7:9D:BF:62:85:71:8E:03:4F:23:02:FB:77:E7:9E:5F:9F:B0:40
                DirName:/CN=Easy-RSA CA
                serial:0E:C6:27:68:6F:91:17:08:6D:A3:3F:61:48:CC:32:CD:FA:31:38:27

            X509v3 Extended Key Usage: 
                TLS Web Server Authentication
            X509v3 Key Usage: 
                Digital Signature, Key Encipherment
            X509v3 Subject Alternative Name: 
                DNS:*.cb-example.default.svc, DNS:localhost
    Signature Algorithm: sha256WithRSAEncryption
         12:35:6a:00:00:b0:18:05:b4:45:f1:d8:8a:0f:3b:2f:d6:26:
         0d:b3:96:bf:ec:8a:40:0c:01:ec:44:c6:af:97:3d:e4:6f:43:
         bf:70:7c:64:99:12:16:29:5e:9d:b6:e8:79:f5:24:c0:89:ea:
         6c:5f:1f:a7:ec:a4:7d:23:4e:81:e1:76:2e:38:5c:e9:1a:91:
         68:3c:84:05:20:98:65:d8:c6:39:09:11:f1:f2:74:d2:99:0f:
         10:4d:dd:56:a5:fe:c6:22:10:f6:cf:9a:32:b3:8d:09:01:0e:
         93:52:79:b2:7b:b1:27:c5:35:d3:27:42:ed:e7:9a:fe:71:71:
         f1:3b:ed:54:fb:55:66:de:d5:21:57:29:1e:95:f3:e0:07:96:
         2a:cf:fa:ed:03:a1:e9:2e:5f:70:37:84:04:fa:91:a1:93:0f:
         b7:9b:89:2e:c8:4a:4e:2e:71:62:fc:b6:f4:6c:7c:bb:cd:31:
         af:29:42:fd:70:e6:c8:2a:20:15:ae:6f:24:c9:1c:96:41:21:
         61:da:7c:55:c6:79:36:51:6c:a4:80:68:b9:ab:f3:a5:1b:35:
         0c:56:b0:94:d7:58:1f:1a:51:8f:3c:08:00:5f:35:23:d3:4b:
         64:cf:46:0e:77:8e:38:9f:cc:bd:a5:e9:1d:ab:06:83:7b:65:
         18:83:4c:6a
-----BEGIN CERTIFICATE-----
MIIDjjCCAnagAwIBAgIQBigxU6LlAsGzBmZrPn3FADANBgkqhkiG9w0BAQsFADAW
MRQwEgYDVQQDDAtFYXN5LVJTQSBDQTAeFw0xOTEyMTAxNTI3MzJaFw0yMjAzMTQx
NTI3MzJaMBsxGTAXBgNVBAMMEGNvdWNoYmFzZS1zZXJ2ZXIwggEiMA0GCSqGSIb3
DQEBAQUAA4IBDwAwggEKAoIBAQC9lWr22/9TYKSVPSN5GjJ/aa33J9Rz2XSKdT0R
VIsZWRkJ3hLR3uT8Hj+sGvdTQdBNFa+LhS6cwJcjU+/AD8OQIGJBu7WWoZQZcoLt
FMDIGQK9axp9gd9f7HuOFZ1q/clq1ozywoCOL9rkyC8JMjpSstd1t0K3JUc7Lmju
bwCd7S8f5/RgT1bAwooZTIU0TVLpt9AUxJvIlJllHcDZj/V31/J7N5s3WFJHBmM2
We+FBBSMHTed50j3XxVl4fRy7mx6WZ+kCBLqdR98KKMA2rziJVMSYGXqR1t3i8Ki
wFpTwhPfKXdcZ5dYsV6e0z9yNA+VoR2E4p4IAsyAWj21X+szAgMBAAGjgdIwgc8w
CQYDVR0TBAIwADAdBgNVHQ4EFgQUwprIsS+KAT0thSG2rLGftengIzowUQYDVR0j
BEowSIAUGaedv2KFcY4DTyMC+3fnnl+fsEChGqQYMBYxFDASBgNVBAMMC0Vhc3kt
UlNBIENBghQOxidob5EXCG2jP2FIzDLN+jE4JzATBgNVHSUEDDAKBggrBgEFBQcD
ATALBgNVHQ8EBAMCBaAwLgYDVR0RBCcwJYIYKi5jYi1leGFtcGxlLmRlZmF1bHQu
c3Zjgglsb2NhbGhvc3QwDQYJKoZIhvcNAQELBQADggEBABI1agAAsBgFtEXx2IoP
Oy/WJg2zlr/sikAMAexExq+XPeRvQ79wfGSZEhYpXp226Hn1JMCJ6mxfH6fspH0j
ToHhdi44XOkakWg8hAUgmGXYxjkJEfHydNKZDxBN3Val/sYiEPbPmjKzjQkBDpNS
ebJ7sSfFNdMnQu3nmv5xcfE77VT7VWbe1SFXKR6V8+AHlirP+u0DoekuX3A3hAT6
kaGTD7ebiS7ISk4ucWL8tvRsfLvNMa8pQv1w5sgqIBWubyTJHJZBIWHafFXGeTZR
bKSAaLmr86UbNQxWsJTXWB8aUY88CABfNSPTS2TPRg53jjifzL2l6R2rBoN7ZRiD
TGo=
-----END CERTIFICATE-----
